; Function Attrs: nounwind uwtable
define void @Nwk_ManFree(ptr noundef captures(none) %0) local_unnamed_addr #0 {
  %2 = load ptr, ptr %0, align 8, !tbaa !25
  %.not = icmp eq ptr %2, null
  br i1 %.not, label %4, label %3

3:                                                ; preds = %1
  tail call void @free(ptr noundef nonnull %2) #15
  store ptr null, ptr %0, align 8, !tbaa !25
  br label %4

4:                                                ; preds = %3, %1
  %5 = getelementptr inbounds nuw i8, ptr %0, i64 8
  %6 = load ptr, ptr %5, align 8, !tbaa !26
  %.not32 = icmp eq ptr %6, null
  br i1 %.not32, label %8, label %7

7:                                                ; preds = %4
  tail call void @free(ptr noundef nonnull %6) #15
  store ptr null, ptr %5, align 8, !tbaa !26
  br label %8

8:                                                ; preds = %7, %4
  %9 = getelementptr inbounds nuw i8, ptr %0, i64 16
  %10 = load ptr, ptr %9, align 8, !tbaa !11
  %.not33 = icmp eq ptr %10, null
  br i1 %.not33, label %15, label %11

11:                                               ; preds = %8
  %12 = getelementptr inbounds nuw i8, ptr %10, i64 8
  %13 = load ptr, ptr %12, align 8, !tbaa !10
  %.not.i = icmp eq ptr %13, null
  br i1 %.not.i, label %Vec_PtrFree.exit, label %14

14:                                               ; preds = %11
  tail call void @free(ptr noundef nonnull %13) #15
  br label %Vec_PtrFree.exit

Vec_PtrFree.exit:                                 ; preds = %11, %14
  tail call void @free(ptr noundef nonnull %10) #15
  br label %15

15:                                               ; preds = %Vec_PtrFree.exit, %8
  %16 = getelementptr inbounds nuw i8, ptr %0, i64 24
  %17 = load ptr, ptr %16, align 8, !tbaa !19
  %.not34 = icmp eq ptr %17, null
  br i1 %.not34, label %22, label %18

18:                                               ; preds = %15
  %19 = getelementptr inbounds nuw i8, ptr %17, i64 8
  %20 = load ptr, ptr %19, align 8, !tbaa !10
  %.not.i40 = icmp eq ptr %20, null
  br i1 %.not.i40, label %Vec_PtrFree.exit41, label %21

21:                                               ; preds = %18
  tail call void @free(ptr noundef nonnull %20) #15
  br label %Vec_PtrFree.exit41

Vec_PtrFree.exit41:                               ; preds = %18, %21
  tail call void @free(ptr noundef nonnull %17) #15
  br label %22

22:                                               ; preds = %Vec_PtrFree.exit41, %15
  %23 = getelementptr inbounds nuw i8, ptr %0, i64 32
  %24 = load ptr, ptr %23, align 8, !tbaa !20
  %.not35 = icmp eq ptr %24, null
  br i1 %.not35, label %29, label %25

25:                                               ; preds = %22
  %26 = getelementptr inbounds nuw i8, ptr %24, i64 8
  %27 = load ptr, ptr %26, align 8, !tbaa !10
  %.not.i42 = icmp eq ptr %27, null
  br i1 %.not.i42, label %Vec_PtrFree.exit43, label %28

28:                                               ; preds = %25
  tail call void @free(ptr noundef nonnull %27) #15
  br label %Vec_PtrFree.exit43

Vec_PtrFree.exit43:                               ; preds = %25, %28
  tail call void @free(ptr noundef nonnull %24) #15
  br label %29

29:                                               ; preds = %Vec_PtrFree.exit43, %22
  %30 = getelementptr inbounds nuw i8, ptr %0, i64 96
  %31 = load ptr, ptr %30, align 8, !tbaa !21
  %.not36 = icmp eq ptr %31, null
  br i1 %.not36, label %36, label %32

32:                                               ; preds = %29
  %33 = getelementptr inbounds nuw i8, ptr %31, i64 8
  %34 = load ptr, ptr %33, align 8, !tbaa !10
  %.not.i44 = icmp eq ptr %34, null
  br i1 %.not.i44, label %Vec_PtrFree.exit45, label %35

35:                                               ; preds = %32
  tail call void @free(ptr noundef nonnull %34) #15
  br label %Vec_PtrFree.exit45

Vec_PtrFree.exit45:                               ; preds = %32, %35
  tail call void @free(ptr noundef nonnull %31) #15
  br label %36

36:                                               ; preds = %Vec_PtrFree.exit45, %29
  %37 = getelementptr inbounds nuw i8, ptr %0, i64 72
  %38 = load ptr, ptr %37, align 8, !tbaa !27
  %.not37 = icmp eq ptr %38, null
  br i1 %.not37, label %40, label %39

39:                                               ; preds = %36
  tail call void @Tim_ManStop(ptr noundef nonnull %38) #15
  br label %40

40:                                               ; preds = %39, %36
  %41 = getelementptr inbounds nuw i8, ptr %0, i64 88
  %42 = load ptr, ptr %41, align 8, !tbaa !23
  %.not38 = icmp eq ptr %42, null
  br i1 %.not38, label %44, label %43

43:                                               ; preds = %40
  tail call void @Aig_MmFlexStop(ptr noundef nonnull %42, i32 noundef 0) #15
  br label %44

44:                                               ; preds = %43, %40
  %45 = getelementptr inbounds nuw i8, ptr %0, i64 64
  %46 = load ptr, ptr %45, align 8, !tbaa !24
  %.not39 = icmp eq ptr %46, null
  br i1 %.not39, label %48, label %47

47:                                               ; preds = %44
  tail call void @Hop_ManStop(ptr noundef nonnull %46) #15
  br label %48

48:                                               ; preds = %44, %47
  tail call void @free(ptr noundef nonnull %0) #15
  ret void
}